; Function Attrs: mustprogress nounwind uwtable
define hidden noundef i32 @_ZN8JVMCIEnv28get_BytecodeFrame_UNWIND_BCIEv(ptr noundef nonnull align 8 dereferenceable(64) %0) local_unnamed_addr #0 align 2 {
  %2 = getelementptr inbounds i8, ptr %0, i64 24
  %3 = load i8, ptr %2, align 8
  %4 = trunc i8 %3 to i1
  br i1 %4, label %5, label %7

5:                                                ; preds = %1
  %6 = tail call noundef i32 @_ZN12HotSpotJVMCI13BytecodeFrame14get_UNWIND_BCIEP8JVMCIEnv(ptr noundef nonnull %0) #14
  br label %9

7:                                                ; preds = %1
  %8 = tail call noundef i32 @_ZN8JNIJVMCI13BytecodeFrame14get_UNWIND_BCIEP8JVMCIEnv(ptr noundef nonnull %0) #14
  br label %9

9:                                                ; preds = %7, %5
  %.0 = phi i32 [ %6, %5 ], [ %8, %7 ]
  ret i32 %.0
}